; Function Attrs: mustprogress nofree norecurse nosync nounwind ssp willreturn memory(read, inaccessiblemem: none) uwtable
define noundef zeroext i1 @_ZNK6open3d13visualization30ViewControlWithCustomAnimation30IsValidPinholeCameraTrajectoryEv(ptr noundef nonnull readonly align 16 captures(none) dereferenceable(816) %0) local_unnamed_addr #28 align 2 {
  %2 = getelementptr inbounds nuw i8, ptr %0, i64 744
  %3 = load ptr, ptr %2, align 8, !tbaa !53
  %4 = getelementptr inbounds nuw i8, ptr %0, i64 752
  %5 = load ptr, ptr %4, align 16, !tbaa !53
  %6 = icmp eq ptr %3, %5
  br i1 %6, label %.loopexit, label %7

7:                                                ; preds = %1
  %8 = getelementptr inbounds nuw i8, ptr %3, i64 8
  %9 = load double, ptr %8, align 8, !tbaa !713
  %10 = load double, ptr @_ZN6open3d13visualization11ViewControl17FIELD_OF_VIEW_MINE, align 8, !tbaa !89
  %11 = fcmp oeq double %9, %10
  br i1 %11, label %.loopexit, label %.lr.ph

.lr.ph:                                           ; preds = %7, %.lr.ph
  %.sroa.08.012 = phi ptr [ %15, %.lr.ph ], [ %3, %7 ]
  %12 = getelementptr inbounds nuw i8, ptr %.sroa.08.012, i64 8
  %13 = load double, ptr %12, align 8, !tbaa !713
  %14 = fcmp oeq double %13, %9
  %15 = getelementptr inbounds nuw i8, ptr %.sroa.08.012, i64 144
  %.not = icmp ne ptr %15, %5
  %or.cond.not = select i1 %14, i1 %.not, i1 false
  br i1 %or.cond.not, label %.lr.ph, label %.loopexit

.loopexit:                                        ; preds = %.lr.ph, %7, %1
  %.0 = phi i1 [ false, %1 ], [ false, %7 ], [ %14, %.lr.ph ]
  ret i1 %.0
}